; Function Attrs: mustprogress nounwind uwtable
define void @_ZN5Ipopt19DenseGenSchurDriverD2Ev(ptr noundef nonnull align 8 dereferenceable(96) initializes((0, 8)) %0) unnamed_addr #6 align 2 {
  store ptr getelementptr inbounds nuw inrange(-16, 96) (i8, ptr @_ZTVN5Ipopt19DenseGenSchurDriverE, i64 16), ptr %0, align 8, !tbaa !12
  %2 = getelementptr inbounds nuw i8, ptr %0, i64 88
  %3 = load ptr, ptr %2, align 8, !tbaa !20
  %.not.i.i = icmp eq ptr %3, null
  br i1 %.not.i.i, label %_ZN5Ipopt8SmartPtrINS_14DenseGenMatrixEED2Ev.exit, label %4

4:                                                ; preds = %1
  %5 = getelementptr inbounds nuw i8, ptr %3, i64 8
  %6 = load i32, ptr %5, align 8, !tbaa !9
  %7 = add nsw i32 %6, -1
  store i32 %7, ptr %5, align 8, !tbaa !9
  %8 = icmp eq i32 %7, 0
  br i1 %8, label %9, label %_ZN5Ipopt8SmartPtrINS_14DenseGenMatrixEED2Ev.exit

9:                                                ; preds = %4
  %10 = load ptr, ptr %3, align 8, !tbaa !12
  %11 = getelementptr inbounds nuw i8, ptr %10, i64 8
  %12 = load ptr, ptr %11, align 8
  tail call void %12(ptr noundef nonnull align 8 dereferenceable(104) %3) #16
  store ptr null, ptr %2, align 8, !tbaa !20
  br label %_ZN5Ipopt8SmartPtrINS_14DenseGenMatrixEED2Ev.exit

_ZN5Ipopt8SmartPtrINS_14DenseGenMatrixEED2Ev.exit: ; preds = %1, %4, %9
  %13 = getelementptr inbounds nuw i8, ptr %0, i64 80
  %14 = load ptr, ptr %13, align 8, !tbaa !17
  %.not.i.i1 = icmp eq ptr %14, null
  br i1 %.not.i.i1, label %_ZN5Ipopt8SmartPtrINS_14SensBacksolverEED2Ev.exit, label %15

15:                                               ; preds = %_ZN5Ipopt8SmartPtrINS_14DenseGenMatrixEED2Ev.exit
  %16 = getelementptr inbounds nuw i8, ptr %14, i64 8
  %17 = load i32, ptr %16, align 8, !tbaa !9
  %18 = add nsw i32 %17, -1
  store i32 %18, ptr %16, align 8, !tbaa !9
  %19 = icmp eq i32 %18, 0
  br i1 %19, label %20, label %_ZN5Ipopt8SmartPtrINS_14SensBacksolverEED2Ev.exit

20:                                               ; preds = %15
  %21 = load ptr, ptr %14, align 8, !tbaa !12
  %22 = getelementptr inbounds nuw i8, ptr %21, i64 8
  %23 = load ptr, ptr %22, align 8
  tail call void %23(ptr noundef nonnull align 8 dereferenceable(49) %14) #16
  store ptr null, ptr %13, align 8, !tbaa !17
  br label %_ZN5Ipopt8SmartPtrINS_14SensBacksolverEED2Ev.exit

_ZN5Ipopt8SmartPtrINS_14SensBacksolverEED2Ev.exit: ; preds = %_ZN5Ipopt8SmartPtrINS_14DenseGenMatrixEED2Ev.exit, %15, %20
  %24 = getelementptr inbounds nuw i8, ptr %0, i64 72
  %25 = load ptr, ptr %24, align 8, !tbaa !14
  %.not.i.i2 = icmp eq ptr %25, null
  br i1 %.not.i.i2, label %_ZN5Ipopt8SmartPtrINS_9SchurDataEED2Ev.exit, label %26

26:                                               ; preds = %_ZN5Ipopt8SmartPtrINS_14SensBacksolverEED2Ev.exit
  %27 = getelementptr inbounds nuw i8, ptr %25, i64 8
  %28 = load i32, ptr %27, align 8, !tbaa !9
  %29 = add nsw i32 %28, -1
  store i32 %29, ptr %27, align 8, !tbaa !9
  %30 = icmp eq i32 %29, 0
  br i1 %30, label %31, label %_ZN5Ipopt8SmartPtrINS_9SchurDataEED2Ev.exit

31:                                               ; preds = %26
  %32 = load ptr, ptr %25, align 8, !tbaa !12
  %33 = getelementptr inbounds nuw i8, ptr %32, i64 8
  %34 = load ptr, ptr %33, align 8
  tail call void %34(ptr noundef nonnull align 8 dereferenceable(20) %25) #16
  store ptr null, ptr %24, align 8, !tbaa !14
  br label %_ZN5Ipopt8SmartPtrINS_9SchurDataEED2Ev.exit

_ZN5Ipopt8SmartPtrINS_9SchurDataEED2Ev.exit:      ; preds = %_ZN5Ipopt8SmartPtrINS_14SensBacksolverEED2Ev.exit, %26, %31
  tail call void @_ZN5Ipopt11SchurDriverD2Ev(ptr noundef nonnull align 8 dereferenceable(72) %0) #16
  ret void
}